target datalayout = "e-m:e-p270:32:32-p271:32:32-p272:64:64-i64:64-i128:128-f80:128-n8:16:32:64-S128"
target triple = "x86_64-pc-linux-gnu"

%struct.ForEachState = type { ptr, i32 }
%struct.PlannerInfo = type { i32, ptr, ptr, i32, ptr, ptr, ptr, ptr, i32, ptr, ptr, ptr, ptr, ptr, ptr, ptr, ptr, i32, ptr, ptr, ptr, ptr, ptr, i8, ptr, ptr, ptr, ptr, ptr, i32, ptr, ptr, ptr, ptr, ptr, ptr, ptr, i32, ptr, ptr, ptr, i32, ptr, ptr, ptr, ptr, ptr, ptr, [8 x ptr], [8 x ptr], ptr, ptr, ptr, ptr, ptr, ptr, ptr, double, double, double, i32, i8, i8, i8, i8, i8, i8, i8, i32, ptr, ptr, i32, i8, i8, i32, ptr, ptr, ptr, ptr, ptr, ptr, i8, ptr }
%struct.List = type { i32, i32, i32, ptr, [0 x %union.ListCell] }
%union.ListCell = type { ptr }
%struct.RelOptInfo = type { i32, i32, ptr, double, i8, i8, i8, ptr, ptr, ptr, ptr, ptr, ptr, ptr, ptr, ptr, ptr, i32, i32, i32, i16, i16, ptr, ptr, ptr, ptr, ptr, ptr, ptr, ptr, i32, double, double, ptr, ptr, ptr, i32, i32, i32, i32, i8, ptr, ptr, ptr, ptr, ptr, %struct.QualCost, i32, ptr, i8, i8, ptr, ptr, ptr, ptr, i32, ptr, i8, ptr, ptr, ptr, ptr, ptr, ptr }
%struct.QualCost = type { double, double }
%struct.Node = type { i32 }

; Function Attrs: inlinehint nounwind uwtable
define internal ptr @newNode(i64 noundef %0, i32 noundef %1) #2 {
  %3 = alloca i64, align 8
  %4 = alloca i32, align 4
  %5 = alloca ptr, align 8
  store i64 %0, ptr %3, align 8
  store i32 %1, ptr %4, align 4
  call void @llvm.lifetime.start.p0(i64 8, ptr %5) #6
  %6 = load i64, ptr %3, align 8
  %7 = call ptr @palloc0(i64 noundef %6)
  store ptr %7, ptr %5, align 8
  %8 = load i32, ptr %4, align 4
  %9 = load ptr, ptr %5, align 8
  %10 = getelementptr inbounds nuw %struct.Node, ptr %9, i32 0, i32 0
  store i32 %8, ptr %10, align 4
  %11 = load ptr, ptr %5, align 8
  call void @llvm.lifetime.end.p0(i64 8, ptr %5) #6
  ret ptr %11
}

; Function Attrs: nounwind uwtable
define dso_local ptr @fetch_upper_rel(ptr noundef %0, i32 noundef %1, ptr noundef %2) #0 {
  %4 = alloca ptr, align 8
  %5 = alloca ptr, align 8
  %6 = alloca i32, align 4
  %7 = alloca ptr, align 8
  %8 = alloca ptr, align 8
  %9 = alloca ptr, align 8
  %10 = alloca %struct.ForEachState, align 8
  %11 = alloca i32, align 4
  store ptr %0, ptr %5, align 8
  store i32 %1, ptr %6, align 4
  store ptr %2, ptr %7, align 8
  call void @llvm.lifetime.start.p0(i64 8, ptr %8) #6
  call void @llvm.lifetime.start.p0(i64 8, ptr %9) #6
  call void @llvm.lifetime.start.p0(i64 16, ptr %10) #6
  %12 = getelementptr inbounds nuw %struct.ForEachState, ptr %10, i32 0, i32 0
  %13 = load ptr, ptr %5, align 8
  %14 = getelementptr inbounds nuw %struct.PlannerInfo, ptr %13, i32 0, i32 48
  %15 = load i32, ptr %6, align 4
  %16 = zext i32 %15 to i64
  %17 = getelementptr inbounds nuw [8 x ptr], ptr %14, i64 0, i64 %16
  %18 = load ptr, ptr %17, align 8
  store ptr %18, ptr %12, align 8
  %19 = getelementptr inbounds nuw %struct.ForEachState, ptr %10, i32 0, i32 1
  store i32 0, ptr %19, align 8
  %20 = getelementptr i8, ptr %10, i64 12
  call void @llvm.memset.p0.i64(ptr align 4 %20, i8 0, i64 4, i1 false)
  br label %21

21:                                               ; preds = %58, %3
  %22 = getelementptr inbounds nuw %struct.ForEachState, ptr %10, i32 0, i32 0
  %23 = load ptr, ptr %22, align 8
  %24 = icmp ne ptr %23, null
  br i1 %24, label %25, label %42

25:                                               ; preds = %21
  %26 = getelementptr inbounds nuw %struct.ForEachState, ptr %10, i32 0, i32 1
  %27 = load i32, ptr %26, align 8
  %28 = getelementptr inbounds nuw %struct.ForEachState, ptr %10, i32 0, i32 0
  %29 = load ptr, ptr %28, align 8
  %30 = getelementptr inbounds nuw %struct.List, ptr %29, i32 0, i32 1
  %31 = load i32, ptr %30, align 4
  %32 = icmp slt i32 %27, %31
  br i1 %32, label %33, label %42

33:                                               ; preds = %25
  %34 = getelementptr inbounds nuw %struct.ForEachState, ptr %10, i32 0, i32 0
  %35 = load ptr, ptr %34, align 8
  %36 = getelementptr inbounds nuw %struct.List, ptr %35, i32 0, i32 3
  %37 = load ptr, ptr %36, align 8
  %38 = getelementptr inbounds nuw %struct.ForEachState, ptr %10, i32 0, i32 1
  %39 = load i32, ptr %38, align 8
  %40 = sext i32 %39 to i64
  %41 = getelementptr inbounds %union.ListCell, ptr %37, i64 %40
  store ptr %41, ptr %9, align 8
  br label %43

42:                                               ; preds = %25, %21
  store ptr null, ptr %9, align 8
  br label %43

43:                                               ; preds = %42, %33
  %44 = phi i32 [ 1, %33 ], [ 0, %42 ]
  %45 = icmp ne i32 %44, 0
  br i1 %45, label %47, label %46

46:                                               ; preds = %43
  store i32 2, ptr %11, align 4
  br label %62

47:                                               ; preds = %43
  %48 = load ptr, ptr %9, align 8
  %49 = load ptr, ptr %48, align 8
  store ptr %49, ptr %8, align 8
  %50 = load ptr, ptr %8, align 8
  %51 = getelementptr inbounds nuw %struct.RelOptInfo, ptr %50, i32 0, i32 2
  %52 = load ptr, ptr %51, align 8
  %53 = load ptr, ptr %7, align 8
  %54 = call zeroext i1 @bms_equal(ptr noundef %52, ptr noundef %53)
  br i1 %54, label %55, label %57

55:                                               ; preds = %47
  %56 = load ptr, ptr %8, align 8
  store ptr %56, ptr %4, align 8
  store i32 1, ptr %11, align 4
  br label %62

57:                                               ; preds = %47
  br label %58

58:                                               ; preds = %57
  %59 = getelementptr inbounds nuw %struct.ForEachState, ptr %10, i32 0, i32 1
  %60 = load i32, ptr %59, align 8
  %61 = add i32 %60, 1
  store i32 %61, ptr %59, align 8
  br label %21, !llvm.loop !14

62:                                               ; preds = %55, %46
  call void @llvm.lifetime.end.p0(i64 16, ptr %10) #6
  %63 = load i32, ptr %11, align 4
  switch i32 %63, label %110 [
    i32 2, label %64
  ]

64:                                               ; preds = %62
  %65 = call ptr @newNode(i64 noundef 448, i32 noundef 267)
  store ptr %65, ptr %8, align 8
  %66 = load ptr, ptr %8, align 8
  %67 = getelementptr inbounds nuw %struct.RelOptInfo, ptr %66, i32 0, i32 1
  store i32 4, ptr %67, align 4
  %68 = load ptr, ptr %7, align 8
  %69 = call ptr @bms_copy(ptr noundef %68)
  %70 = load ptr, ptr %8, align 8
  %71 = getelementptr inbounds nuw %struct.RelOptInfo, ptr %70, i32 0, i32 2
  store ptr %69, ptr %71, align 8
  %72 = load ptr, ptr %5, align 8
  %73 = getelementptr inbounds nuw %struct.PlannerInfo, ptr %72, i32 0, i32 58
  %74 = load double, ptr %73, align 8
  %75 = fcmp ogt double %74, 0.000000e+00
  %76 = load ptr, ptr %8, align 8
  %77 = getelementptr inbounds nuw %struct.RelOptInfo, ptr %76, i32 0, i32 4
  %78 = zext i1 %75 to i8
  store i8 %78, ptr %77, align 8
  %79 = load ptr, ptr %8, align 8
  %80 = getelementptr inbounds nuw %struct.RelOptInfo, ptr %79, i32 0, i32 5
  store i8 0, ptr %80, align 1
  %81 = load ptr, ptr %8, align 8
  %82 = getelementptr inbounds nuw %struct.RelOptInfo, ptr %81, i32 0, i32 6
  store i8 0, ptr %82, align 2
  %83 = call ptr @create_empty_pathtarget()
  %84 = load ptr, ptr %8, align 8
  %85 = getelementptr inbounds nuw %struct.RelOptInfo, ptr %84, i32 0, i32 7
  store ptr %83, ptr %85, align 8
  %86 = load ptr, ptr %8, align 8
  %87 = getelementptr inbounds nuw %struct.RelOptInfo, ptr %86, i32 0, i32 8
  store ptr null, ptr %87, align 8
  %88 = load ptr, ptr %8, align 8
  %89 = getelementptr inbounds nuw %struct.RelOptInfo, ptr %88, i32 0, i32 11
  store ptr null, ptr %89, align 8
  %90 = load ptr, ptr %8, align 8
  %91 = getelementptr inbounds nuw %struct.RelOptInfo, ptr %90, i32 0, i32 12
  store ptr null, ptr %91, align 8
  %92 = load ptr, ptr %8, align 8
  %93 = getelementptr inbounds nuw %struct.RelOptInfo, ptr %92, i32 0, i32 13
  store ptr null, ptr %93, align 8
  %94 = load ptr, ptr %8, align 8
  %95 = getelementptr inbounds nuw %struct.RelOptInfo, ptr %94, i32 0, i32 14
  store ptr null, ptr %95, align 8
  %96 = load ptr, ptr %5, align 8
  %97 = getelementptr inbounds nuw %struct.PlannerInfo, ptr %96, i32 0, i32 48
  %98 = load i32, ptr %6, align 4
  %99 = zext i32 %98 to i64
  %100 = getelementptr inbounds nuw [8 x ptr], ptr %97, i64 0, i64 %99
  %101 = load ptr, ptr %100, align 8
  %102 = load ptr, ptr %8, align 8
  %103 = call ptr @lappend(ptr noundef %101, ptr noundef %102)
  %104 = load ptr, ptr %5, align 8
  %105 = getelementptr inbounds nuw %struct.PlannerInfo, ptr %104, i32 0, i32 48
  %106 = load i32, ptr %6, align 4
  %107 = zext i32 %106 to i64
  %108 = getelementptr inbounds nuw [8 x ptr], ptr %105, i64 0, i64 %107
  store ptr %103, ptr %108, align 8
  %109 = load ptr, ptr %8, align 8
  store ptr %109, ptr %4, align 8
  store i32 1, ptr %11, align 4
  br label %110

110:                                              ; preds = %64, %62
  call void @llvm.lifetime.end.p0(i64 8, ptr %9) #6
  call void @llvm.lifetime.end.p0(i64 8, ptr %8) #6
  %111 = load ptr, ptr %4, align 8
  ret ptr %111
}