; Function Attrs: nounwind uwtable
define dso_local ptr @fetch_upper_rel(ptr noundef captures(none) %0, i32 noundef %1, ptr noundef %2) local_unnamed_addr #0 {
  %4 = getelementptr inbounds nuw i8, ptr %0, i64 384
  %5 = zext i32 %1 to i64
  %6 = getelementptr inbounds nuw [8 x ptr], ptr %4, i64 0, i64 %5
  %7 = load ptr, ptr %6, align 8
  %.not = icmp eq ptr %7, null
  br i1 %.not, label %._crit_edge, label %.lr.ph

.lr.ph:                                           ; preds = %3
  %8 = getelementptr inbounds nuw i8, ptr %7, i64 4
  %9 = getelementptr inbounds nuw i8, ptr %7, i64 16
  %10 = load i32, ptr %8, align 4
  %11 = icmp sgt i32 %10, 0
  br i1 %11, label %.lr.ph43, label %._crit_edge

12:                                               ; preds = %.lr.ph43
  %indvars.iv.next = add nuw nsw i64 %indvars.iv, 1
  %13 = load i32, ptr %8, align 4
  %14 = sext i32 %13 to i64
  %15 = icmp slt i64 %indvars.iv.next, %14
  br i1 %15, label %.lr.ph43, label %._crit_edge

.lr.ph43:                                         ; preds = %.lr.ph, %12
  %indvars.iv = phi i64 [ %indvars.iv.next, %12 ], [ 0, %.lr.ph ]
  %16 = load ptr, ptr %9, align 8
  %17 = getelementptr inbounds nuw %union.ListCell, ptr %16, i64 %indvars.iv
  %18 = load ptr, ptr %17, align 8
  %19 = getelementptr inbounds nuw i8, ptr %18, i64 8
  %20 = load ptr, ptr %19, align 8
  %21 = tail call zeroext i1 @bms_equal(ptr noundef %20, ptr noundef %2) #7
  br i1 %21, label %.loopexit, label %12

._crit_edge:                                      ; preds = %12, %.lr.ph, %3
  %22 = tail call noundef ptr @palloc0(i64 noundef 448) #7
  store i32 267, ptr %22, align 4
  %23 = getelementptr inbounds nuw i8, ptr %22, i64 4
  store i32 4, ptr %23, align 4
  %24 = tail call ptr @bms_copy(ptr noundef %2) #7
  %25 = getelementptr inbounds nuw i8, ptr %22, i64 8
  store ptr %24, ptr %25, align 8
  %26 = getelementptr inbounds nuw i8, ptr %0, i64 576
  %27 = load double, ptr %26, align 8
  %28 = fcmp ogt double %27, 0.000000e+00
  %29 = getelementptr inbounds nuw i8, ptr %22, i64 24
  %30 = zext i1 %28 to i8
  store i8 %30, ptr %29, align 8
  %31 = getelementptr inbounds nuw i8, ptr %22, i64 25
  store i8 0, ptr %31, align 1
  %32 = getelementptr inbounds nuw i8, ptr %22, i64 26
  store i8 0, ptr %32, align 2
  %33 = tail call ptr @create_empty_pathtarget() #7
  %34 = getelementptr inbounds nuw i8, ptr %22, i64 32
  store ptr %33, ptr %34, align 8
  %35 = getelementptr inbounds nuw i8, ptr %22, i64 40
  store ptr null, ptr %35, align 8
  %36 = getelementptr inbounds nuw i8, ptr %22, i64 64
  tail call void @llvm.memset.p0.i64(ptr noundef nonnull align 8 dereferenceable(32) %36, i8 0, i64 32, i1 false)
  %37 = load ptr, ptr %6, align 8
  %38 = tail call ptr @lappend(ptr noundef %37, ptr noundef nonnull %22) #7
  store ptr %38, ptr %6, align 8
  br label %.loopexit

.loopexit:                                        ; preds = %.lr.ph43, %._crit_edge
  %.1 = phi ptr [ %22, %._crit_edge ], [ %18, %.lr.ph43 ]
  ret ptr %.1
}